; Function Attrs: nounwind uwtable
define dso_local range(i32 0, 2) i32 @ossl_cmp_mock_srv_set1_oldWithNew(ptr noundef %0, ptr noundef %1) local_unnamed_addr #0 {
  %3 = tail call ptr @OSSL_CMP_SRV_CTX_get0_custom_ctx(ptr noundef %0) #4
  %4 = icmp eq ptr %3, null
  br i1 %4, label %5, label %6

5:                                                ; preds = %2
  tail call void @ERR_new() #4
  tail call void @ERR_set_debug(ptr noundef nonnull @.str, i32 noundef 158, ptr noundef nonnull @__func__.ossl_cmp_mock_srv_set1_oldWithNew) #4
  tail call void (i32, i32, ptr, ...) @ERR_set_error(i32 noundef 58, i32 noundef 103, ptr noundef null) #4
  br label %13

6:                                                ; preds = %2
  %7 = icmp eq ptr %1, null
  br i1 %7, label %10, label %8

8:                                                ; preds = %6
  %9 = tail call i32 @X509_up_ref(ptr noundef nonnull %1) #4
  %.not = icmp eq i32 %9, 0
  br i1 %.not, label %13, label %10

10:                                               ; preds = %8, %6
  %11 = getelementptr inbounds nuw i8, ptr %3, i64 64
  %12 = load ptr, ptr %11, align 8, !tbaa !23
  tail call void @X509_free(ptr noundef %12) #4
  store ptr %1, ptr %11, align 8, !tbaa !23
  br label %13

13:                                               ; preds = %8, %10, %5
  %.0 = phi i32 [ 0, %5 ], [ 1, %10 ], [ 0, %8 ]
  ret i32 %.0
}